target datalayout = "e-m:e-p270:32:32-p271:32:32-p272:64:64-i64:64-i128:128-f80:128-n8:16:32:64-S128"
target triple = "x86_64-pc-linux-gnu"

%struct._zval_struct = type { %union._zend_value, %union.anon, %union.anon.2 }
%union._zend_value = type { i64 }
%union.anon = type { i32 }
%union.anon.2 = type { i32 }
%struct._zend_refcounted_h = type { i32, %union.anon.3 }
%union.anon.3 = type { i32 }
%struct._zend_string = type { %struct._zend_refcounted_h, i64, i64, [1 x i8] }

@.str.21 = private unnamed_addr constant [11 x i8] c"HTTP_PROXY\00", align 1

; Function Attrs: nounwind uwtable
define internal void @check_http_proxy(ptr noundef %0) #0 {
  %2 = alloca ptr, align 8
  %3 = alloca i32, align 4
  %4 = alloca i64, align 8
  %5 = alloca i8, align 1
  %6 = alloca ptr, align 8
  %7 = alloca ptr, align 8
  %8 = alloca ptr, align 8
  %9 = alloca i64, align 8
  %10 = alloca ptr, align 8
  %11 = alloca i64, align 8
  %12 = alloca i8, align 1
  %13 = alloca ptr, align 8
  %14 = alloca ptr, align 8
  %15 = alloca ptr, align 8
  %16 = alloca %struct._zval_struct, align 8
  %17 = alloca ptr, align 8
  %18 = alloca ptr, align 8
  %19 = alloca ptr, align 8
  store ptr %0, ptr %14, align 8
  %20 = load ptr, ptr %14, align 8
  store ptr %20, ptr %7, align 8
  store ptr @.str.21, ptr %8, align 8
  store i64 10, ptr %9, align 8
  %21 = load ptr, ptr %7, align 8
  %22 = load ptr, ptr %8, align 8
  %23 = load i64, ptr %9, align 8
  %24 = call ptr @zend_hash_str_find(ptr noundef %21, ptr noundef %22, i64 noundef %23) #13
  %25 = icmp ne ptr %24, null
  br i1 %25, label %26, label %496

26:                                               ; preds = %1
  %27 = call ptr @getenv(ptr noundef @.str.21) #13
  store ptr %27, ptr %15, align 8
  %28 = load ptr, ptr %15, align 8
  %29 = icmp ne ptr %28, null
  br i1 %29, label %33, label %30

30:                                               ; preds = %26
  %31 = load ptr, ptr %14, align 8
  %32 = call i32 @zend_hash_str_del(ptr noundef %31, ptr noundef @.str.21, i64 noundef 10)
  br label %495

33:                                               ; preds = %26
  br label %34

34:                                               ; preds = %33
  %35 = load ptr, ptr %15, align 8
  store ptr %35, ptr %17, align 8
  br label %36

36:                                               ; preds = %34
  br label %37

37:                                               ; preds = %36
  store ptr %16, ptr %18, align 8
  %38 = load ptr, ptr %17, align 8
  %39 = load ptr, ptr %17, align 8
  %40 = call i64 @strlen(ptr noundef %39) #11
  store ptr %38, ptr %10, align 8
  store i64 %40, ptr %11, align 8
  store i8 0, ptr %12, align 1
  %41 = load i64, ptr %11, align 8
  %42 = load i8, ptr %12, align 1
  %43 = trunc i8 %42 to i1
  store i64 %41, ptr %4, align 8
  %44 = zext i1 %43 to i8
  store i8 %44, ptr %5, align 1
  %45 = load i8, ptr %5, align 1
  %46 = trunc i8 %45 to i1
  br i1 %46, label %47, label %55

47:                                               ; preds = %37
  %48 = load i64, ptr %4, align 8
  %49 = add i64 24, %48
  %50 = add i64 %49, 1
  %51 = add i64 %50, 8
  %52 = sub i64 %51, 1
  %53 = and i64 %52, -8
  %54 = call noalias ptr @__zend_malloc(i64 noundef %53) #12
  br label %459

55:                                               ; preds = %37
  %56 = load i64, ptr %4, align 8
  %57 = add i64 24, %56
  %58 = add i64 %57, 1
  %59 = add i64 %58, 8
  %60 = sub i64 %59, 1
  %61 = and i64 %60, -8
  %62 = call i1 @llvm.is.constant.i64(i64 %61)
  br i1 %62, label %63, label %449

63:                                               ; preds = %55
  %64 = load i64, ptr %4, align 8
  %65 = add i64 24, %64
  %66 = add i64 %65, 1
  %67 = add i64 %66, 8
  %68 = sub i64 %67, 1
  %69 = and i64 %68, -8
  %70 = icmp ule i64 %69, 8
  br i1 %70, label %71, label %73

71:                                               ; preds = %63
  %72 = call noalias ptr @_emalloc_8() #13
  br label %447

73:                                               ; preds = %63
  %74 = load i64, ptr %4, align 8
  %75 = add i64 24, %74
  %76 = add i64 %75, 1
  %77 = add i64 %76, 8
  %78 = sub i64 %77, 1
  %79 = and i64 %78, -8
  %80 = icmp ule i64 %79, 16
  br i1 %80, label %81, label %83

81:                                               ; preds = %73
  %82 = call noalias ptr @_emalloc_16() #13
  br label %445

83:                                               ; preds = %73
  %84 = load i64, ptr %4, align 8
  %85 = add i64 24, %84
  %86 = add i64 %85, 1
  %87 = add i64 %86, 8
  %88 = sub i64 %87, 1
  %89 = and i64 %88, -8
  %90 = icmp ule i64 %89, 24
  br i1 %90, label %91, label %93

91:                                               ; preds = %83
  %92 = call noalias ptr @_emalloc_24() #13
  br label %443

93:                                               ; preds = %83
  %94 = load i64, ptr %4, align 8
  %95 = add i64 24, %94
  %96 = add i64 %95, 1
  %97 = add i64 %96, 8
  %98 = sub i64 %97, 1
  %99 = and i64 %98, -8
  %100 = icmp ule i64 %99, 32
  br i1 %100, label %101, label %103

101:                                              ; preds = %93
  %102 = call noalias ptr @_emalloc_32() #13
  br label %441

103:                                              ; preds = %93
  %104 = load i64, ptr %4, align 8
  %105 = add i64 24, %104
  %106 = add i64 %105, 1
  %107 = add i64 %106, 8
  %108 = sub i64 %107, 1
  %109 = and i64 %108, -8
  %110 = icmp ule i64 %109, 40
  br i1 %110, label %111, label %113

111:                                              ; preds = %103
  %112 = call noalias ptr @_emalloc_40() #13
  br label %439

113:                                              ; preds = %103
  %114 = load i64, ptr %4, align 8
  %115 = add i64 24, %114
  %116 = add i64 %115, 1
  %117 = add i64 %116, 8
  %118 = sub i64 %117, 1
  %119 = and i64 %118, -8
  %120 = icmp ule i64 %119, 48
  br i1 %120, label %121, label %123

121:                                              ; preds = %113
  %122 = call noalias ptr @_emalloc_48() #13
  br label %437

123:                                              ; preds = %113
  %124 = load i64, ptr %4, align 8
  %125 = add i64 24, %124
  %126 = add i64 %125, 1
  %127 = add i64 %126, 8
  %128 = sub i64 %127, 1
  %129 = and i64 %128, -8
  %130 = icmp ule i64 %129, 56
  br i1 %130, label %131, label %133

131:                                              ; preds = %123
  %132 = call noalias ptr @_emalloc_56() #13
  br label %435

133:                                              ; preds = %123
  %134 = load i64, ptr %4, align 8
  %135 = add i64 24, %134
  %136 = add i64 %135, 1
  %137 = add i64 %136, 8
  %138 = sub i64 %137, 1
  %139 = and i64 %138, -8
  %140 = icmp ule i64 %139, 64
  br i1 %140, label %141, label %143

141:                                              ; preds = %133
  %142 = call noalias ptr @_emalloc_64() #13
  br label %433

143:                                              ; preds = %133
  %144 = load i64, ptr %4, align 8
  %145 = add i64 24, %144
  %146 = add i64 %145, 1
  %147 = add i64 %146, 8
  %148 = sub i64 %147, 1
  %149 = and i64 %148, -8
  %150 = icmp ule i64 %149, 80
  br i1 %150, label %151, label %153

151:                                              ; preds = %143
  %152 = call noalias ptr @_emalloc_80() #13
  br label %431

153:                                              ; preds = %143
  %154 = load i64, ptr %4, align 8
  %155 = add i64 24, %154
  %156 = add i64 %155, 1
  %157 = add i64 %156, 8
  %158 = sub i64 %157, 1
  %159 = and i64 %158, -8
  %160 = icmp ule i64 %159, 96
  br i1 %160, label %161, label %163

161:                                              ; preds = %153
  %162 = call noalias ptr @_emalloc_96() #13
  br label %429

163:                                              ; preds = %153
  %164 = load i64, ptr %4, align 8
  %165 = add i64 24, %164
  %166 = add i64 %165, 1
  %167 = add i64 %166, 8
  %168 = sub i64 %167, 1
  %169 = and i64 %168, -8
  %170 = icmp ule i64 %169, 112
  br i1 %170, label %171, label %173

171:                                              ; preds = %163
  %172 = call noalias ptr @_emalloc_112() #13
  br label %427

173:                                              ; preds = %163
  %174 = load i64, ptr %4, align 8
  %175 = add i64 24, %174
  %176 = add i64 %175, 1
  %177 = add i64 %176, 8
  %178 = sub i64 %177, 1
  %179 = and i64 %178, -8
  %180 = icmp ule i64 %179, 128
  br i1 %180, label %181, label %183

181:                                              ; preds = %173
  %182 = call noalias ptr @_emalloc_128() #13
  br label %425

183:                                              ; preds = %173
  %184 = load i64, ptr %4, align 8
  %185 = add i64 24, %184
  %186 = add i64 %185, 1
  %187 = add i64 %186, 8
  %188 = sub i64 %187, 1
  %189 = and i64 %188, -8
  %190 = icmp ule i64 %189, 160
  br i1 %190, label %191, label %193

191:                                              ; preds = %183
  %192 = call noalias ptr @_emalloc_160() #13
  br label %423

193:                                              ; preds = %183
  %194 = load i64, ptr %4, align 8
  %195 = add i64 24, %194
  %196 = add i64 %195, 1
  %197 = add i64 %196, 8
  %198 = sub i64 %197, 1
  %199 = and i64 %198, -8
  %200 = icmp ule i64 %199, 192
  br i1 %200, label %201, label %203

201:                                              ; preds = %193
  %202 = call noalias ptr @_emalloc_192() #13
  br label %421

203:                                              ; preds = %193
  %204 = load i64, ptr %4, align 8
  %205 = add i64 24, %204
  %206 = add i64 %205, 1
  %207 = add i64 %206, 8
  %208 = sub i64 %207, 1
  %209 = and i64 %208, -8
  %210 = icmp ule i64 %209, 224
  br i1 %210, label %211, label %213

211:                                              ; preds = %203
  %212 = call noalias ptr @_emalloc_224() #13
  br label %419

213:                                              ; preds = %203
  %214 = load i64, ptr %4, align 8
  %215 = add i64 24, %214
  %216 = add i64 %215, 1
  %217 = add i64 %216, 8
  %218 = sub i64 %217, 1
  %219 = and i64 %218, -8
  %220 = icmp ule i64 %219, 256
  br i1 %220, label %221, label %223

221:                                              ; preds = %213
  %222 = call noalias ptr @_emalloc_256() #13
  br label %417

223:                                              ; preds = %213
  %224 = load i64, ptr %4, align 8
  %225 = add i64 24, %224
  %226 = add i64 %225, 1
  %227 = add i64 %226, 8
  %228 = sub i64 %227, 1
  %229 = and i64 %228, -8
  %230 = icmp ule i64 %229, 320
  br i1 %230, label %231, label %233

231:                                              ; preds = %223
  %232 = call noalias ptr @_emalloc_320() #13
  br label %415

233:                                              ; preds = %223
  %234 = load i64, ptr %4, align 8
  %235 = add i64 24, %234
  %236 = add i64 %235, 1
  %237 = add i64 %236, 8
  %238 = sub i64 %237, 1
  %239 = and i64 %238, -8
  %240 = icmp ule i64 %239, 384
  br i1 %240, label %241, label %243

241:                                              ; preds = %233
  %242 = call noalias ptr @_emalloc_384() #13
  br label %413

243:                                              ; preds = %233
  %244 = load i64, ptr %4, align 8
  %245 = add i64 24, %244
  %246 = add i64 %245, 1
  %247 = add i64 %246, 8
  %248 = sub i64 %247, 1
  %249 = and i64 %248, -8
  %250 = icmp ule i64 %249, 448
  br i1 %250, label %251, label %253

251:                                              ; preds = %243
  %252 = call noalias ptr @_emalloc_448() #13
  br label %411

253:                                              ; preds = %243
  %254 = load i64, ptr %4, align 8
  %255 = add i64 24, %254
  %256 = add i64 %255, 1
  %257 = add i64 %256, 8
  %258 = sub i64 %257, 1
  %259 = and i64 %258, -8
  %260 = icmp ule i64 %259, 512
  br i1 %260, label %261, label %263

261:                                              ; preds = %253
  %262 = call noalias ptr @_emalloc_512() #13
  br label %409

263:                                              ; preds = %253
  %264 = load i64, ptr %4, align 8
  %265 = add i64 24, %264
  %266 = add i64 %265, 1
  %267 = add i64 %266, 8
  %268 = sub i64 %267, 1
  %269 = and i64 %268, -8
  %270 = icmp ule i64 %269, 640
  br i1 %270, label %271, label %273

271:                                              ; preds = %263
  %272 = call noalias ptr @_emalloc_640() #13
  br label %407

273:                                              ; preds = %263
  %274 = load i64, ptr %4, align 8
  %275 = add i64 24, %274
  %276 = add i64 %275, 1
  %277 = add i64 %276, 8
  %278 = sub i64 %277, 1
  %279 = and i64 %278, -8
  %280 = icmp ule i64 %279, 768
  br i1 %280, label %281, label %283

281:                                              ; preds = %273
  %282 = call noalias ptr @_emalloc_768() #13
  br label %405

283:                                              ; preds = %273
  %284 = load i64, ptr %4, align 8
  %285 = add i64 24, %284
  %286 = add i64 %285, 1
  %287 = add i64 %286, 8
  %288 = sub i64 %287, 1
  %289 = and i64 %288, -8
  %290 = icmp ule i64 %289, 896
  br i1 %290, label %291, label %293

291:                                              ; preds = %283
  %292 = call noalias ptr @_emalloc_896() #13
  br label %403

293:                                              ; preds = %283
  %294 = load i64, ptr %4, align 8
  %295 = add i64 24, %294
  %296 = add i64 %295, 1
  %297 = add i64 %296, 8
  %298 = sub i64 %297, 1
  %299 = and i64 %298, -8
  %300 = icmp ule i64 %299, 1024
  br i1 %300, label %301, label %303

301:                                              ; preds = %293
  %302 = call noalias ptr @_emalloc_1024() #13
  br label %401

303:                                              ; preds = %293
  %304 = load i64, ptr %4, align 8
  %305 = add i64 24, %304
  %306 = add i64 %305, 1
  %307 = add i64 %306, 8
  %308 = sub i64 %307, 1
  %309 = and i64 %308, -8
  %310 = icmp ule i64 %309, 1280
  br i1 %310, label %311, label %313

311:                                              ; preds = %303
  %312 = call noalias ptr @_emalloc_1280() #13
  br label %399

313:                                              ; preds = %303
  %314 = load i64, ptr %4, align 8
  %315 = add i64 24, %314
  %316 = add i64 %315, 1
  %317 = add i64 %316, 8
  %318 = sub i64 %317, 1
  %319 = and i64 %318, -8
  %320 = icmp ule i64 %319, 1536
  br i1 %320, label %321, label %323

321:                                              ; preds = %313
  %322 = call noalias ptr @_emalloc_1536() #13
  br label %397

323:                                              ; preds = %313
  %324 = load i64, ptr %4, align 8
  %325 = add i64 24, %324
  %326 = add i64 %325, 1
  %327 = add i64 %326, 8
  %328 = sub i64 %327, 1
  %329 = and i64 %328, -8
  %330 = icmp ule i64 %329, 1792
  br i1 %330, label %331, label %333

331:                                              ; preds = %323
  %332 = call noalias ptr @_emalloc_1792() #13
  br label %395

333:                                              ; preds = %323
  %334 = load i64, ptr %4, align 8
  %335 = add i64 24, %334
  %336 = add i64 %335, 1
  %337 = add i64 %336, 8
  %338 = sub i64 %337, 1
  %339 = and i64 %338, -8
  %340 = icmp ule i64 %339, 2048
  br i1 %340, label %341, label %343

341:                                              ; preds = %333
  %342 = call noalias ptr @_emalloc_2048() #13
  br label %393

343:                                              ; preds = %333
  %344 = load i64, ptr %4, align 8
  %345 = add i64 24, %344
  %346 = add i64 %345, 1
  %347 = add i64 %346, 8
  %348 = sub i64 %347, 1
  %349 = and i64 %348, -8
  %350 = icmp ule i64 %349, 2560
  br i1 %350, label %351, label %353

351:                                              ; preds = %343
  %352 = call noalias ptr @_emalloc_2560() #13
  br label %391

353:                                              ; preds = %343
  %354 = load i64, ptr %4, align 8
  %355 = add i64 24, %354
  %356 = add i64 %355, 1
  %357 = add i64 %356, 8
  %358 = sub i64 %357, 1
  %359 = and i64 %358, -8
  %360 = icmp ule i64 %359, 3072
  br i1 %360, label %361, label %363

361:                                              ; preds = %353
  %362 = call noalias ptr @_emalloc_3072() #13
  br label %389

363:                                              ; preds = %353
  %364 = load i64, ptr %4, align 8
  %365 = add i64 24, %364
  %366 = add i64 %365, 1
  %367 = add i64 %366, 8
  %368 = sub i64 %367, 1
  %369 = and i64 %368, -8
  %370 = icmp ule i64 %369, 2093056
  br i1 %370, label %371, label %379

371:                                              ; preds = %363
  %372 = load i64, ptr %4, align 8
  %373 = add i64 24, %372
  %374 = add i64 %373, 1
  %375 = add i64 %374, 8
  %376 = sub i64 %375, 1
  %377 = and i64 %376, -8
  %378 = call noalias ptr @_emalloc_large(i64 noundef %377) #12
  br label %387

379:                                              ; preds = %363
  %380 = load i64, ptr %4, align 8
  %381 = add i64 24, %380
  %382 = add i64 %381, 1
  %383 = add i64 %382, 8
  %384 = sub i64 %383, 1
  %385 = and i64 %384, -8
  %386 = call noalias ptr @_emalloc_huge(i64 noundef %385) #12
  br label %387

387:                                              ; preds = %379, %371
  %388 = phi ptr [ %378, %371 ], [ %386, %379 ]
  br label %389

389:                                              ; preds = %387, %361
  %390 = phi ptr [ %362, %361 ], [ %388, %387 ]
  br label %391

391:                                              ; preds = %389, %351
  %392 = phi ptr [ %352, %351 ], [ %390, %389 ]
  br label %393

393:                                              ; preds = %391, %341
  %394 = phi ptr [ %342, %341 ], [ %392, %391 ]
  br label %395

395:                                              ; preds = %393, %331
  %396 = phi ptr [ %332, %331 ], [ %394, %393 ]
  br label %397

397:                                              ; preds = %395, %321
  %398 = phi ptr [ %322, %321 ], [ %396, %395 ]
  br label %399

399:                                              ; preds = %397, %311
  %400 = phi ptr [ %312, %311 ], [ %398, %397 ]
  br label %401

401:                                              ; preds = %399, %301
  %402 = phi ptr [ %302, %301 ], [ %400, %399 ]
  br label %403

403:                                              ; preds = %401, %291
  %404 = phi ptr [ %292, %291 ], [ %402, %401 ]
  br label %405

405:                                              ; preds = %403, %281
  %406 = phi ptr [ %282, %281 ], [ %404, %403 ]
  br label %407

407:                                              ; preds = %405, %271
  %408 = phi ptr [ %272, %271 ], [ %406, %405 ]
  br label %409

409:                                              ; preds = %407, %261
  %410 = phi ptr [ %262, %261 ], [ %408, %407 ]
  br label %411

411:                                              ; preds = %409, %251
  %412 = phi ptr [ %252, %251 ], [ %410, %409 ]
  br label %413

413:                                              ; preds = %411, %241
  %414 = phi ptr [ %242, %241 ], [ %412, %411 ]
  br label %415

415:                                              ; preds = %413, %231
  %416 = phi ptr [ %232, %231 ], [ %414, %413 ]
  br label %417

417:                                              ; preds = %415, %221
  %418 = phi ptr [ %222, %221 ], [ %416, %415 ]
  br label %419

419:                                              ; preds = %417, %211
  %420 = phi ptr [ %212, %211 ], [ %418, %417 ]
  br label %421

421:                                              ; preds = %419, %201
  %422 = phi ptr [ %202, %201 ], [ %420, %419 ]
  br label %423

423:                                              ; preds = %421, %191
  %424 = phi ptr [ %192, %191 ], [ %422, %421 ]
  br label %425

425:                                              ; preds = %423, %181
  %426 = phi ptr [ %182, %181 ], [ %424, %423 ]
  br label %427

427:                                              ; preds = %425, %171
  %428 = phi ptr [ %172, %171 ], [ %426, %425 ]
  br label %429

429:                                              ; preds = %427, %161
  %430 = phi ptr [ %162, %161 ], [ %428, %427 ]
  br label %431

431:                                              ; preds = %429, %151
  %432 = phi ptr [ %152, %151 ], [ %430, %429 ]
  br label %433

433:                                              ; preds = %431, %141
  %434 = phi ptr [ %142, %141 ], [ %432, %431 ]
  br label %435

435:                                              ; preds = %433, %131
  %436 = phi ptr [ %132, %131 ], [ %434, %433 ]
  br label %437

437:                                              ; preds = %435, %121
  %438 = phi ptr [ %122, %121 ], [ %436, %435 ]
  br label %439

439:                                              ; preds = %437, %111
  %440 = phi ptr [ %112, %111 ], [ %438, %437 ]
  br label %441

441:                                              ; preds = %439, %101
  %442 = phi ptr [ %102, %101 ], [ %440, %439 ]
  br label %443

443:                                              ; preds = %441, %91
  %444 = phi ptr [ %92, %91 ], [ %442, %441 ]
  br label %445

445:                                              ; preds = %443, %81
  %446 = phi ptr [ %82, %81 ], [ %444, %443 ]
  br label %447

447:                                              ; preds = %445, %71
  %448 = phi ptr [ %72, %71 ], [ %446, %445 ]
  br label %457

449:                                              ; preds = %55
  %450 = load i64, ptr %4, align 8
  %451 = add i64 24, %450
  %452 = add i64 %451, 1
  %453 = add i64 %452, 8
  %454 = sub i64 %453, 1
  %455 = and i64 %454, -8
  %456 = call noalias ptr @_emalloc(i64 noundef %455) #12
  br label %457

457:                                              ; preds = %449, %447
  %458 = phi ptr [ %448, %447 ], [ %456, %449 ]
  br label %459

459:                                              ; preds = %457, %47
  %460 = phi ptr [ %54, %47 ], [ %458, %457 ]
  store ptr %460, ptr %6, align 8
  %461 = load ptr, ptr %6, align 8
  store ptr %461, ptr %2, align 8
  store i32 1, ptr %3, align 4
  %462 = load i32, ptr %3, align 4
  %463 = load ptr, ptr %2, align 8
  store i32 %462, ptr %463, align 4
  %464 = load i8, ptr %5, align 1
  %465 = trunc i8 %464 to i1
  %466 = select i1 %465, i32 128, i32 0
  %467 = or i32 22, %466
  %468 = load ptr, ptr %6, align 8
  %469 = getelementptr inbounds %struct._zend_refcounted_h, ptr %468, i32 0, i32 1
  store i32 %467, ptr %469, align 4
  %470 = load ptr, ptr %6, align 8
  %471 = getelementptr inbounds %struct._zend_string, ptr %470, i32 0, i32 1
  store i64 0, ptr %471, align 8
  %472 = load i64, ptr %4, align 8
  %473 = load ptr, ptr %6, align 8
  %474 = getelementptr inbounds %struct._zend_string, ptr %473, i32 0, i32 2
  store i64 %472, ptr %474, align 8
  %475 = load ptr, ptr %6, align 8
  store ptr %475, ptr %13, align 8
  %476 = load ptr, ptr %13, align 8
  %477 = getelementptr inbounds %struct._zend_string, ptr %476, i32 0, i32 3
  %478 = load ptr, ptr %10, align 8
  %479 = load i64, ptr %11, align 8
  call void @llvm.memcpy.p0.p0.i64(ptr align 8 %477, ptr align 1 %478, i64 %479, i1 false)
  %480 = load ptr, ptr %13, align 8
  %481 = getelementptr inbounds %struct._zend_string, ptr %480, i32 0, i32 3
  %482 = load i64, ptr %11, align 8
  %483 = getelementptr inbounds [1 x i8], ptr %481, i64 0, i64 %482
  store i8 0, ptr %483, align 1
  %484 = load ptr, ptr %13, align 8
  store ptr %484, ptr %19, align 8
  %485 = load ptr, ptr %19, align 8
  %486 = load ptr, ptr %18, align 8
  %487 = getelementptr inbounds %struct._zval_struct, ptr %486, i32 0, i32 0
  store ptr %485, ptr %487, align 8
  %488 = load ptr, ptr %18, align 8
  %489 = getelementptr inbounds %struct._zval_struct, ptr %488, i32 0, i32 1
  store i32 262, ptr %489, align 8
  br label %490

490:                                              ; preds = %459
  br label %491

491:                                              ; preds = %490
  br label %492

492:                                              ; preds = %491
  %493 = load ptr, ptr %14, align 8
  %494 = call ptr @zend_hash_str_update(ptr noundef %493, ptr noundef @.str.21, i64 noundef 10, ptr noundef %16)
  br label %495

495:                                              ; preds = %492, %30
  br label %496

496:                                              ; preds = %495, %1
  ret void
}