; Function Attrs: nounwind uwtable
define internal fastcc void @check_http_proxy(ptr noundef %0) unnamed_addr #0 {
  %2 = alloca %struct._zval_struct, align 8
  %3 = tail call ptr @zend_hash_str_find(ptr noundef %0, ptr noundef nonnull @.str.21, i64 noundef 10) #17
  %.not = icmp eq ptr %3, null
  br i1 %.not, label %20, label %4

4:                                                ; preds = %1
  %5 = tail call ptr @getenv(ptr noundef nonnull @.str.21) #17
  %.not67 = icmp eq ptr %5, null
  br i1 %.not67, label %6, label %8

6:                                                ; preds = %4
  %7 = tail call i32 @zend_hash_str_del(ptr noundef %0, ptr noundef nonnull @.str.21, i64 noundef 10) #17
  br label %20

8:                                                ; preds = %4
  %9 = tail call i64 @strlen(ptr noundef nonnull dereferenceable(1) %5) #15
  %10 = and i64 %9, -8
  %11 = add i64 %10, 32
  %12 = tail call noalias ptr @_emalloc(i64 noundef %11) #16
  store i32 1, ptr %12, align 4
  %13 = getelementptr inbounds i8, ptr %12, i64 4
  store i32 22, ptr %13, align 4
  %14 = getelementptr inbounds i8, ptr %12, i64 8
  store i64 0, ptr %14, align 8
  %15 = getelementptr inbounds i8, ptr %12, i64 16
  store i64 %9, ptr %15, align 8
  %16 = getelementptr inbounds i8, ptr %12, i64 24
  tail call void @llvm.memcpy.p0.p0.i64(ptr nonnull align 8 %16, ptr nonnull align 1 %5, i64 %9, i1 false)
  %17 = getelementptr inbounds [1 x i8], ptr %16, i64 0, i64 %9
  store i8 0, ptr %17, align 1
  store ptr %12, ptr %2, align 8
  %18 = getelementptr inbounds i8, ptr %2, i64 8
  store i32 262, ptr %18, align 8
  %19 = call ptr @zend_hash_str_update(ptr noundef %0, ptr noundef nonnull @.str.21, i64 noundef 10, ptr noundef nonnull %2) #17
  br label %20

20:                                               ; preds = %6, %8, %1
  ret void
}